target datalayout = "e-m:e-p270:32:32-p271:32:32-p272:64:64-i64:64-i128:128-f80:128-n8:16:32:64-S128"
target triple = "x86_64-unknown-linux-gnu"

%struct.bin_info_s = type { i64, i64, i32, i32, %struct.bitmap_info_s }
%struct.bitmap_info_s = type { i64, i64 }
%struct.malloc_mutex_s = type { %union.anon }
%union.anon = type { %struct.anon.1 }
%struct.anon.1 = type { %struct.mutex_prof_data_t, %union.pthread_mutex_t, %struct.atomic_b_t }
%struct.mutex_prof_data_t = type { %struct.nstime_t, %struct.nstime_t, i64, i64, i32, %struct.atomic_u32_t, i64, ptr, i64 }
%struct.nstime_t = type { i64 }
%struct.atomic_u32_t = type { i32 }
%union.pthread_mutex_t = type { %struct.__pthread_mutex_s }
%struct.__pthread_mutex_s = type { i32, i32, i32, i32, i32, i16, i16, %struct.__pthread_internal_list }
%struct.__pthread_internal_list = type { ptr, ptr }
%struct.atomic_b_t = type { i8 }
%struct.atomic_zd_t = type { i64 }
%struct.pa_central_s = type { %struct.hpa_central_s }
%struct.hpa_central_s = type { %struct.malloc_mutex_s, %struct.malloc_mutex_s, ptr, i64, ptr, i64, %struct.hpa_hooks_s }
%struct.hpa_hooks_s = type { ptr, ptr, ptr, ptr, ptr, ptr, ptr }
%struct.div_info_s = type { i32 }
%struct.sc_data_s = type { i32, i32, i32, i32, i32, i32, i32, i64, i64, i32, i64, i64, i8, [235 x %struct.sc_s] }
%struct.sc_s = type { i32, i32, i32, i32, i8, i8, i32, i32 }

@opt_dirty_decay_ms = hidden global i64 10000, align 8
@opt_muzzy_decay_ms = hidden global i64 0, align 8
@bin_infos = external global [39 x %struct.bin_info_s], align 16
@dirty_decay_ms_default = internal global %struct.atomic_zd_t zeroinitializer, align 8
@muzzy_decay_ms_default = internal global %struct.atomic_zd_t zeroinitializer, align 8
@nbins_total = internal global i32 0, align 4
@arena_pa_central_global = hidden global %struct.pa_central_s zeroinitializer, align 8
@arena_binind_div_info = hidden global [39 x %struct.div_info_s] zeroinitializer, align 16
@arena_bin_offsets = hidden global [39 x i32] zeroinitializer, align 16
@hpa_hooks_default = external global %struct.hpa_hooks_s, align 8

; Function Attrs: nounwind uwtable
define hidden zeroext i1 @arena_muzzy_decay_ms_default_set(i64 noundef %decay_ms) #0 {
entry:
  %retval.i = alloca i32, align 4
  %mo.addr.i1 = alloca i32, align 4
  %a.addr.i = alloca ptr, align 8
  %val.addr.i = alloca i64, align 8
  %mo.addr.i = alloca i32, align 4
  %retval = alloca i1, align 1
  %decay_ms.addr = alloca i64, align 8
  store i64 %decay_ms, ptr %decay_ms.addr, align 8
  %0 = load i64, ptr %decay_ms.addr, align 8
  %call = call zeroext i1 @decay_ms_valid(i64 noundef %0)
  br i1 %call, label %if.end, label %if.then

if.then:                                          ; preds = %entry
  store i1 true, ptr %retval, align 1
  br label %return

if.end:                                           ; preds = %entry
  %1 = load i64, ptr %decay_ms.addr, align 8
  store ptr @muzzy_decay_ms_default, ptr %a.addr.i, align 8
  store i64 %1, ptr %val.addr.i, align 8
  store i32 0, ptr %mo.addr.i, align 4
  %2 = load ptr, ptr %a.addr.i, align 8
  %3 = load i32, ptr %mo.addr.i, align 4
  store i32 %3, ptr %mo.addr.i1, align 4
  %4 = load i32, ptr %mo.addr.i1, align 4
  switch i32 %4, label %sw.epilog.i [
    i32 0, label %sw.bb.i
    i32 1, label %sw.bb1.i
    i32 2, label %sw.bb2.i
    i32 3, label %sw.bb3.i
    i32 4, label %sw.bb4.i
  ]

sw.bb.i:                                          ; preds = %if.end
  store i32 0, ptr %retval.i, align 4
  br label %atomic_enum_to_builtin.exit

sw.bb1.i:                                         ; preds = %if.end
  store i32 2, ptr %retval.i, align 4
  br label %atomic_enum_to_builtin.exit

sw.bb2.i:                                         ; preds = %if.end
  store i32 3, ptr %retval.i, align 4
  br label %atomic_enum_to_builtin.exit

sw.bb3.i:                                         ; preds = %if.end
  store i32 4, ptr %retval.i, align 4
  br label %atomic_enum_to_builtin.exit

sw.bb4.i:                                         ; preds = %if.end
  store i32 5, ptr %retval.i, align 4
  br label %atomic_enum_to_builtin.exit

sw.epilog.i:                                      ; preds = %if.end
  unreachable

atomic_enum_to_builtin.exit:                      ; preds = %sw.bb4.i, %sw.bb3.i, %sw.bb2.i, %sw.bb1.i, %sw.bb.i
  %5 = load i32, ptr %retval.i, align 4
  switch i32 %5, label %monotonic.i [
    i32 3, label %release.i
    i32 5, label %seqcst.i
  ]

monotonic.i:                                      ; preds = %atomic_enum_to_builtin.exit
  %6 = load i64, ptr %val.addr.i, align 8
  store atomic i64 %6, ptr %2 monotonic, align 8
  br label %atomic_store_zd.exit

release.i:                                        ; preds = %atomic_enum_to_builtin.exit
  %7 = load i64, ptr %val.addr.i, align 8
  store atomic i64 %7, ptr %2 release, align 8
  br label %atomic_store_zd.exit

seqcst.i:                                         ; preds = %atomic_enum_to_builtin.exit
  %8 = load i64, ptr %val.addr.i, align 8
  store atomic i64 %8, ptr %2 seq_cst, align 8
  br label %atomic_store_zd.exit

atomic_store_zd.exit:                             ; preds = %seqcst.i, %release.i, %monotonic.i
  store i1 false, ptr %retval, align 1
  br label %return

return:                                           ; preds = %atomic_store_zd.exit, %if.then
  %9 = load i1, ptr %retval, align 1
  ret i1 %9
}

; Function Attrs: nounwind uwtable
define hidden zeroext i1 @arena_dirty_decay_ms_default_set(i64 noundef %decay_ms) #0 {
entry:
  %retval.i = alloca i32, align 4
  %mo.addr.i1 = alloca i32, align 4
  %a.addr.i = alloca ptr, align 8
  %val.addr.i = alloca i64, align 8
  %mo.addr.i = alloca i32, align 4
  %retval = alloca i1, align 1
  %decay_ms.addr = alloca i64, align 8
  store i64 %decay_ms, ptr %decay_ms.addr, align 8
  %0 = load i64, ptr %decay_ms.addr, align 8
  %call = call zeroext i1 @decay_ms_valid(i64 noundef %0)
  br i1 %call, label %if.end, label %if.then

if.then:                                          ; preds = %entry
  store i1 true, ptr %retval, align 1
  br label %return

if.end:                                           ; preds = %entry
  %1 = load i64, ptr %decay_ms.addr, align 8
  store ptr @dirty_decay_ms_default, ptr %a.addr.i, align 8
  store i64 %1, ptr %val.addr.i, align 8
  store i32 0, ptr %mo.addr.i, align 4
  %2 = load ptr, ptr %a.addr.i, align 8
  %3 = load i32, ptr %mo.addr.i, align 4
  store i32 %3, ptr %mo.addr.i1, align 4
  %4 = load i32, ptr %mo.addr.i1, align 4
  switch i32 %4, label %sw.epilog.i [
    i32 0, label %sw.bb.i
    i32 1, label %sw.bb1.i
    i32 2, label %sw.bb2.i
    i32 3, label %sw.bb3.i
    i32 4, label %sw.bb4.i
  ]

sw.bb.i:                                          ; preds = %if.end
  store i32 0, ptr %retval.i, align 4
  br label %atomic_enum_to_builtin.exit

sw.bb1.i:                                         ; preds = %if.end
  store i32 2, ptr %retval.i, align 4
  br label %atomic_enum_to_builtin.exit

sw.bb2.i:                                         ; preds = %if.end
  store i32 3, ptr %retval.i, align 4
  br label %atomic_enum_to_builtin.exit

sw.bb3.i:                                         ; preds = %if.end
  store i32 4, ptr %retval.i, align 4
  br label %atomic_enum_to_builtin.exit

sw.bb4.i:                                         ; preds = %if.end
  store i32 5, ptr %retval.i, align 4
  br label %atomic_enum_to_builtin.exit

sw.epilog.i:                                      ; preds = %if.end
  unreachable

atomic_enum_to_builtin.exit:                      ; preds = %sw.bb4.i, %sw.bb3.i, %sw.bb2.i, %sw.bb1.i, %sw.bb.i
  %5 = load i32, ptr %retval.i, align 4
  switch i32 %5, label %monotonic.i [
    i32 3, label %release.i
    i32 5, label %seqcst.i
  ]

monotonic.i:                                      ; preds = %atomic_enum_to_builtin.exit
  %6 = load i64, ptr %val.addr.i, align 8
  store atomic i64 %6, ptr %2 monotonic, align 8
  br label %atomic_store_zd.exit

release.i:                                        ; preds = %atomic_enum_to_builtin.exit
  %7 = load i64, ptr %val.addr.i, align 8
  store atomic i64 %7, ptr %2 release, align 8
  br label %atomic_store_zd.exit

seqcst.i:                                         ; preds = %atomic_enum_to_builtin.exit
  %8 = load i64, ptr %val.addr.i, align 8
  store atomic i64 %8, ptr %2 seq_cst, align 8
  br label %atomic_store_zd.exit

atomic_store_zd.exit:                             ; preds = %seqcst.i, %release.i, %monotonic.i
  store i1 false, ptr %retval, align 1
  br label %return

return:                                           ; preds = %atomic_store_zd.exit, %if.then
  %9 = load i1, ptr %retval, align 1
  ret i1 %9
}

; Function Attrs: nounwind uwtable
define hidden zeroext i1 @arena_boot(ptr noundef %sc_data, ptr noundef %base, i1 noundef zeroext %hpa) #0 {
entry:
  %sc_data.addr = alloca ptr, align 8
  %base.addr = alloca ptr, align 8
  %hpa.addr = alloca i8, align 1
  %i = alloca i32, align 4
  %sc = alloca ptr, align 8
  %cur_offset = alloca i32, align 4
  %i8 = alloca i32, align 4
  store ptr %sc_data, ptr %sc_data.addr, align 8
  store ptr %base, ptr %base.addr, align 8
  %frombool = zext i1 %hpa to i8
  store i8 %frombool, ptr %hpa.addr, align 1
  %0 = load i64, ptr @opt_dirty_decay_ms, align 8
  %call = call zeroext i1 @arena_dirty_decay_ms_default_set(i64 noundef %0)
  %1 = load i64, ptr @opt_muzzy_decay_ms, align 8
  %call1 = call zeroext i1 @arena_muzzy_decay_ms_default_set(i64 noundef %1)
  store i32 0, ptr %i, align 4
  br label %for.cond

for.cond:                                         ; preds = %for.inc, %entry
  %2 = load i32, ptr %i, align 4
  %conv = zext i32 %2 to i64
  %cmp = icmp ult i64 %conv, 39
  br i1 %cmp, label %for.body, label %for.end

for.body:                                         ; preds = %for.cond
  %3 = load ptr, ptr %sc_data.addr, align 8
  %sc3 = getelementptr inbounds %struct.sc_data_s, ptr %3, i32 0, i32 13
  %4 = load i32, ptr %i, align 4
  %idxprom = zext i32 %4 to i64
  %arrayidx = getelementptr inbounds [235 x %struct.sc_s], ptr %sc3, i64 0, i64 %idxprom
  store ptr %arrayidx, ptr %sc, align 8
  %5 = load i32, ptr %i, align 4
  %idxprom4 = zext i32 %5 to i64
  %arrayidx5 = getelementptr inbounds [39 x %struct.div_info_s], ptr @arena_binind_div_info, i64 0, i64 %idxprom4
  %6 = load ptr, ptr %sc, align 8
  %lg_base = getelementptr inbounds %struct.sc_s, ptr %6, i32 0, i32 1
  %7 = load i32, ptr %lg_base, align 4
  %shl = shl i32 1, %7
  %8 = load ptr, ptr %sc, align 8
  %ndelta = getelementptr inbounds %struct.sc_s, ptr %8, i32 0, i32 3
  %9 = load i32, ptr %ndelta, align 4
  %10 = load ptr, ptr %sc, align 8
  %lg_delta = getelementptr inbounds %struct.sc_s, ptr %10, i32 0, i32 2
  %11 = load i32, ptr %lg_delta, align 4
  %shl6 = shl i32 %9, %11
  %add = add i32 %shl, %shl6
  %conv7 = zext i32 %add to i64
  call void @div_init(ptr noundef %arrayidx5, i64 noundef %conv7)
  br label %for.inc

for.inc:                                          ; preds = %for.body
  %12 = load i32, ptr %i, align 4
  %inc = add i32 %12, 1
  store i32 %inc, ptr %i, align 4
  br label %for.cond, !llvm.loop !23

for.end:                                          ; preds = %for.cond
  store i32 78952, ptr %cur_offset, align 4
  store i32 0, ptr %i8, align 4
  br label %for.cond9

for.cond9:                                        ; preds = %for.inc25, %for.end
  %13 = load i32, ptr %i8, align 4
  %conv10 = zext i32 %13 to i64
  %cmp11 = icmp ult i64 %conv10, 39
  br i1 %cmp11, label %for.body13, label %for.end27

for.body13:                                       ; preds = %for.cond9
  %14 = load i32, ptr %cur_offset, align 4
  %15 = load i32, ptr %i8, align 4
  %idxprom14 = zext i32 %15 to i64
  %arrayidx15 = getelementptr inbounds [39 x i32], ptr @arena_bin_offsets, i64 0, i64 %idxprom14
  store i32 %14, ptr %arrayidx15, align 4
  %16 = load i32, ptr %i8, align 4
  %idxprom16 = zext i32 %16 to i64
  %arrayidx17 = getelementptr inbounds [39 x %struct.bin_info_s], ptr @bin_infos, i64 0, i64 %idxprom16
  %n_shards = getelementptr inbounds %struct.bin_info_s, ptr %arrayidx17, i32 0, i32 3
  %17 = load i32, ptr %n_shards, align 4
  %18 = load i32, ptr @nbins_total, align 4
  %add18 = add i32 %18, %17
  store i32 %add18, ptr @nbins_total, align 4
  %19 = load i32, ptr %i8, align 4
  %idxprom19 = zext i32 %19 to i64
  %arrayidx20 = getelementptr inbounds [39 x %struct.bin_info_s], ptr @bin_infos, i64 0, i64 %idxprom19
  %n_shards21 = getelementptr inbounds %struct.bin_info_s, ptr %arrayidx20, i32 0, i32 3
  %20 = load i32, ptr %n_shards21, align 4
  %conv22 = zext i32 %20 to i64
  %mul = mul i64 %conv22, 224
  %conv23 = trunc i64 %mul to i32
  %21 = load i32, ptr %cur_offset, align 4
  %add24 = add i32 %21, %conv23
  store i32 %add24, ptr %cur_offset, align 4
  br label %for.inc25

for.inc25:                                        ; preds = %for.body13
  %22 = load i32, ptr %i8, align 4
  %inc26 = add i32 %22, 1
  store i32 %inc26, ptr %i8, align 4
  br label %for.cond9, !llvm.loop !24

for.end27:                                        ; preds = %for.cond9
  %23 = load ptr, ptr %base.addr, align 8
  %24 = load i8, ptr %hpa.addr, align 1
  %tobool = trunc i8 %24 to i1
  %call28 = call zeroext i1 @pa_central_init(ptr noundef @arena_pa_central_global, ptr noundef %23, i1 noundef zeroext %tobool, ptr noundef @hpa_hooks_default)
  ret i1 %call28
}