; Function Attrs: nounwind uwtable
define hidden zeroext i1 @arena_boot(ptr nocapture noundef readonly %sc_data, ptr noundef %base, i1 noundef zeroext %hpa) local_unnamed_addr #0 {
entry:
  %0 = load i64, ptr @opt_dirty_decay_ms, align 8
  %call.i = tail call zeroext i1 @decay_ms_valid(i64 noundef %0) #15
  br i1 %call.i, label %monotonic.i.i, label %arena_dirty_decay_ms_default_set.exit

monotonic.i.i:                                    ; preds = %entry
  store atomic i64 %0, ptr @dirty_decay_ms_default.0 monotonic, align 8
  br label %arena_dirty_decay_ms_default_set.exit

arena_dirty_decay_ms_default_set.exit:            ; preds = %entry, %monotonic.i.i
  %1 = load i64, ptr @opt_muzzy_decay_ms, align 8
  %call.i11 = tail call zeroext i1 @decay_ms_valid(i64 noundef %1) #15
  br i1 %call.i11, label %monotonic.i.i13, label %arena_muzzy_decay_ms_default_set.exit

monotonic.i.i13:                                  ; preds = %arena_dirty_decay_ms_default_set.exit
  store atomic i64 %1, ptr @muzzy_decay_ms_default.0 monotonic, align 8
  br label %arena_muzzy_decay_ms_default_set.exit

arena_muzzy_decay_ms_default_set.exit:            ; preds = %arena_dirty_decay_ms_default_set.exit, %monotonic.i.i13
  %sc3 = getelementptr inbounds i8, ptr %sc_data, i64 76
  br label %for.body

for.cond9.preheader:                              ; preds = %for.body
  %nbins_total.promoted = load i32, ptr @nbins_total, align 4
  br label %for.body13

for.body:                                         ; preds = %arena_muzzy_decay_ms_default_set.exit, %for.body
  %indvars.iv = phi i64 [ 0, %arena_muzzy_decay_ms_default_set.exit ], [ %indvars.iv.next, %for.body ]
  %arrayidx = getelementptr inbounds [235 x %struct.sc_s], ptr %sc3, i64 0, i64 %indvars.iv
  %arrayidx5 = getelementptr inbounds [39 x %struct.div_info_s], ptr @arena_binind_div_info, i64 0, i64 %indvars.iv
  %lg_base = getelementptr inbounds i8, ptr %arrayidx, i64 4
  %2 = load i32, ptr %lg_base, align 4
  %shl = shl nuw i32 1, %2
  %ndelta = getelementptr inbounds i8, ptr %arrayidx, i64 12
  %3 = load i32, ptr %ndelta, align 4
  %lg_delta = getelementptr inbounds i8, ptr %arrayidx, i64 8
  %4 = load i32, ptr %lg_delta, align 4
  %shl6 = shl i32 %3, %4
  %add = add i32 %shl6, %shl
  %conv7 = zext i32 %add to i64
  tail call void @div_init(ptr noundef nonnull %arrayidx5, i64 noundef %conv7) #15
  %indvars.iv.next = add nuw nsw i64 %indvars.iv, 1
  %exitcond.not = icmp eq i64 %indvars.iv.next, 39
  br i1 %exitcond.not, label %for.cond9.preheader, label %for.body, !llvm.loop !25

for.body13:                                       ; preds = %for.cond9.preheader, %for.body13
  %indvars.iv20 = phi i64 [ 0, %for.cond9.preheader ], [ %indvars.iv.next21, %for.body13 ]
  %cur_offset.017 = phi i32 [ 78952, %for.cond9.preheader ], [ %add24, %for.body13 ]
  %add181516 = phi i32 [ %nbins_total.promoted, %for.cond9.preheader ], [ %add18, %for.body13 ]
  %arrayidx15 = getelementptr inbounds [39 x i32], ptr @arena_bin_offsets, i64 0, i64 %indvars.iv20
  store i32 %cur_offset.017, ptr %arrayidx15, align 4
  %n_shards = getelementptr inbounds [39 x %struct.bin_info_s], ptr @bin_infos, i64 0, i64 %indvars.iv20, i32 3
  %5 = load i32, ptr %n_shards, align 4
  %add18 = add i32 %add181516, %5
  %mul = mul i32 %5, 224
  %add24 = add i32 %mul, %cur_offset.017
  %indvars.iv.next21 = add nuw nsw i64 %indvars.iv20, 1
  %exitcond23.not = icmp eq i64 %indvars.iv.next21, 39
  br i1 %exitcond23.not, label %for.end27, label %for.body13, !llvm.loop !26

for.end27:                                        ; preds = %for.body13
  store i32 %add18, ptr @nbins_total, align 4
  %call28 = tail call zeroext i1 @pa_central_init(ptr noundef nonnull @arena_pa_central_global, ptr noundef %base, i1 noundef zeroext %hpa, ptr noundef nonnull @hpa_hooks_default) #15
  ret i1 %call28
}